; ModuleID = '31/484.c'
source_filename = "31/484.c"
target datalayout = "e-m:e-p270:32:32-p271:32:32-p272:64:64-i64:64-f80:128-n8:16:32:64-S128"
target triple = "x86_64-pc-linux-gnu"

%struct.student = type { [10 x i8], [100 x i8], i8, i32, [20 x i8], [20 x i8], %struct.student* }

@n = common dso_local global i32 0, align 4
@.str = private unnamed_addr constant [18 x i8] c"%s %s %c %d %s %s\00", align 1
@.str.1 = private unnamed_addr constant [3 x i8] c"%s\00", align 1
@.str.2 = private unnamed_addr constant [4 x i8] c"end\00", align 1
@.str.3 = private unnamed_addr constant [15 x i8] c"%s %c %d %s %s\00", align 1
@.str.4 = private unnamed_addr constant [19 x i8] c"%s %s %c %d %s %s\0A\00", align 1

; Function Attrs: noinline nounwind uwtable
define dso_local %struct.student* @creat() #0 {
  %1 = alloca %struct.student*, align 8
  %2 = alloca %struct.student*, align 8
  %3 = alloca %struct.student*, align 8
  store i32 0, i32* @n, align 4
  %4 = call noalias i8* @malloc(i64 168) #4
  %5 = bitcast i8* %4 to %struct.student*
  store %struct.student* %5, %struct.student** %3, align 8
  store %struct.student* %5, %struct.student** %2, align 8
  %6 = load %struct.student*, %struct.student** %2, align 8
  %7 = getelementptr inbounds %struct.student, %struct.student* %6, i32 0, i32 0
  %8 = getelementptr inbounds [10 x i8], [10 x i8]* %7, i64 0, i64 0
  %9 = load %struct.student*, %struct.student** %2, align 8
  %10 = getelementptr inbounds %struct.student, %struct.student* %9, i32 0, i32 1
  %11 = getelementptr inbounds [100 x i8], [100 x i8]* %10, i64 0, i64 0
  %12 = load %struct.student*, %struct.student** %2, align 8
  %13 = getelementptr inbounds %struct.student, %struct.student* %12, i32 0, i32 2
  %14 = load %struct.student*, %struct.student** %2, align 8
  %15 = getelementptr inbounds %struct.student, %struct.student* %14, i32 0, i32 3
  %16 = load %struct.student*, %struct.student** %2, align 8
  %17 = getelementptr inbounds %struct.student, %struct.student* %16, i32 0, i32 4
  %18 = getelementptr inbounds [20 x i8], [20 x i8]* %17, i64 0, i64 0
  %19 = load %struct.student*, %struct.student** %2, align 8
  %20 = getelementptr inbounds %struct.student, %struct.student* %19, i32 0, i32 5
  %21 = getelementptr inbounds [20 x i8], [20 x i8]* %20, i64 0, i64 0
  %22 = call i32 (i8*, ...) @__isoc99_scanf(i8* getelementptr inbounds ([18 x i8], [18 x i8]* @.str, i64 0, i64 0), i8* %8, i8* %11, i8* %13, i32* %15, i8* %18, i8* %21)
  %23 = load %struct.student*, %struct.student** %2, align 8
  %24 = getelementptr inbounds %struct.student, %struct.student* %23, i32 0, i32 6
  store %struct.student* null, %struct.student** %24, align 8
  br label %25

25:                                               ; preds = %0, %41
  %26 = load i32, i32* @n, align 4
  %27 = add nsw i32 %26, 1
  store i32 %27, i32* @n, align 4
  %28 = load %struct.student*, %struct.student** %2, align 8
  store %struct.student* %28, %struct.student** %1, align 8
  %29 = call noalias i8* @malloc(i64 168) #4
  %30 = bitcast i8* %29 to %struct.student*
  store %struct.student* %30, %struct.student** %2, align 8
  %31 = load %struct.student*, %struct.student** %2, align 8
  %32 = getelementptr inbounds %struct.student, %struct.student* %31, i32 0, i32 0
  %33 = getelementptr inbounds [10 x i8], [10 x i8]* %32, i64 0, i64 0
  %34 = call i32 (i8*, ...) @__isoc99_scanf(i8* getelementptr inbounds ([3 x i8], [3 x i8]* @.str.1, i64 0, i64 0), i8* %33)
  %35 = load %struct.student*, %struct.student** %2, align 8
  %36 = getelementptr inbounds %struct.student, %struct.student* %35, i32 0, i32 0
  %37 = getelementptr inbounds [10 x i8], [10 x i8]* %36, i64 0, i64 0
  %38 = call i32 @strcmp(i8* %37, i8* getelementptr inbounds ([4 x i8], [4 x i8]* @.str.2, i64 0, i64 0)) #5
  %39 = icmp eq i32 %38, 0
  br i1 %39, label %40, label %41

40:                                               ; preds = %25
  br label %60

41:                                               ; preds = %25
  %42 = load %struct.student*, %struct.student** %2, align 8
  %43 = getelementptr inbounds %struct.student, %struct.student* %42, i32 0, i32 1
  %44 = getelementptr inbounds [100 x i8], [100 x i8]* %43, i64 0, i64 0
  %45 = load %struct.student*, %struct.student** %2, align 8
  %46 = getelementptr inbounds %struct.student, %struct.student* %45, i32 0, i32 2
  %47 = load %struct.student*, %struct.student** %2, align 8
  %48 = getelementptr inbounds %struct.student, %struct.student* %47, i32 0, i32 3
  %49 = load %struct.student*, %struct.student** %2, align 8
  %50 = getelementptr inbounds %struct.student, %struct.student* %49, i32 0, i32 4
  %51 = getelementptr inbounds [20 x i8], [20 x i8]* %50, i64 0, i64 0
  %52 = load %struct.student*, %struct.student** %2, align 8
  %53 = getelementptr inbounds %struct.student, %struct.student* %52, i32 0, i32 5
  %54 = getelementptr inbounds [20 x i8], [20 x i8]* %53, i64 0, i64 0
  %55 = call i32 (i8*, ...) @__isoc99_scanf(i8* getelementptr inbounds ([15 x i8], [15 x i8]* @.str.3, i64 0, i64 0), i8* %44, i8* %46, i32* %48, i8* %51, i8* %54)
  %56 = load %struct.student*, %struct.student** %3, align 8
  %57 = load %struct.student*, %struct.student** %2, align 8
  %58 = getelementptr inbounds %struct.student, %struct.student* %57, i32 0, i32 6
  store %struct.student* %56, %struct.student** %58, align 8
  %59 = load %struct.student*, %struct.student** %2, align 8
  store %struct.student* %59, %struct.student** %3, align 8
  br label %25

60:                                               ; preds = %40
  %61 = load %struct.student*, %struct.student** %1, align 8
  ret %struct.student* %61
}

; Function Attrs: nounwind
declare dso_local noalias i8* @malloc(i64) #1

declare dso_local i32 @__isoc99_scanf(i8*, ...) #2

; Function Attrs: nounwind readonly
declare dso_local i32 @strcmp(i8*, i8*) #3

; Function Attrs: noinline nounwind uwtable
define dso_local void @print(%struct.student* %0) #0 {
  %2 = alloca %struct.student*, align 8
  %3 = alloca %struct.student*, align 8
  store %struct.student* %0, %struct.student** %2, align 8
  %4 = load %struct.student*, %struct.student** %2, align 8
  store %struct.student* %4, %struct.student** %3, align 8
  br label %5

5:                                                ; preds = %29, %1
  %6 = load %struct.student*, %struct.student** %3, align 8
  %7 = getelementptr inbounds %struct.student, %struct.student* %6, i32 0, i32 0
  %8 = getelementptr inbounds [10 x i8], [10 x i8]* %7, i64 0, i64 0
  %9 = load %struct.student*, %struct.student** %3, align 8
  %10 = getelementptr inbounds %struct.student, %struct.student* %9, i32 0, i32 1
  %11 = getelementptr inbounds [100 x i8], [100 x i8]* %10, i64 0, i64 0
  %12 = load %struct.student*, %struct.student** %3, align 8
  %13 = getelementptr inbounds %struct.student, %struct.student* %12, i32 0, i32 2
  %14 = load i8, i8* %13, align 2
  %15 = sext i8 %14 to i32
  %16 = load %struct.student*, %struct.student** %3, align 8
  %17 = getelementptr inbounds %struct.student, %struct.student* %16, i32 0, i32 3
  %18 = load i32, i32* %17, align 8
  %19 = load %struct.student*, %struct.student** %3, align 8
  %20 = getelementptr inbounds %struct.student, %struct.student* %19, i32 0, i32 4
  %21 = getelementptr inbounds [20 x i8], [20 x i8]* %20, i64 0, i64 0
  %22 = load %struct.student*, %struct.student** %3, align 8
  %23 = getelementptr inbounds %struct.student, %struct.student* %22, i32 0, i32 5
  %24 = getelementptr inbounds [20 x i8], [20 x i8]* %23, i64 0, i64 0
  %25 = call i32 (i8*, ...) @printf(i8* getelementptr inbounds ([19 x i8], [19 x i8]* @.str.4, i64 0, i64 0), i8* %8, i8* %11, i32 %15, i32 %18, i8* %21, i8* %24)
  %26 = load %struct.student*, %struct.student** %3, align 8
  %27 = getelementptr inbounds %struct.student, %struct.student* %26, i32 0, i32 6
  %28 = load %struct.student*, %struct.student** %27, align 8
  store %struct.student* %28, %struct.student** %3, align 8
  br label %29

29:                                               ; preds = %5
  %30 = load %struct.student*, %struct.student** %3, align 8
  %31 = icmp ne %struct.student* %30, null
  br i1 %31, label %5, label %32

32:                                               ; preds = %29
  ret void
}

declare dso_local i32 @printf(i8*, ...) #2

; Function Attrs: noinline nounwind uwtable
define dso_local void @main() #0 {
  %1 = call %struct.student* @creat()
  call void @print(%struct.student* %1)
  ret void
}


!llvm.module.flags = !{!0}
!llvm.ident = !{!1}

!0 = !{i32 1, !"wchar_size", i32 4}
!1 = !{!"clang version 10.0.0-4ubuntu1 "}
