; ModuleID = 'source-C-CXX/30/484.c'
source_filename = "source-C-CXX/30/484.c"
target datalayout = "e-m:e-p270:32:32-p271:32:32-p272:64:64-i64:64-f80:128-n8:16:32:64-S128"
target triple = "x86_64-pc-linux-gnu"

%struct.student = type { [10 x i8], [100 x i8], i8, i32, [20 x i8], [20 x i8], %struct.student* }

@n = dso_local local_unnamed_addr global i32 0, align 4
@.str = private unnamed_addr constant [18 x i8] c"%s %s %c %d %s %s\00", align 1
@.str.1 = private unnamed_addr constant [3 x i8] c"%s\00", align 1
@.str.2 = private unnamed_addr constant [4 x i8] c"end\00", align 1
@.str.3 = private unnamed_addr constant [15 x i8] c"%s %c %d %s %s\00", align 1
@.str.4 = private unnamed_addr constant [19 x i8] c"%s %s %c %d %s %s\0A\00", align 1

; Function Attrs: nofree nounwind sspstrong uwtable
define dso_local %struct.student* @creat() local_unnamed_addr #0 {
  store i32 0, i32* @n, align 4, !tbaa !5
  %1 = tail call noalias align 16 dereferenceable_or_null(168) i8* @malloc(i64 168) #4
  %2 = bitcast i8* %1 to %struct.student*
  %3 = getelementptr inbounds %struct.student, %struct.student* %2, i64 0, i32 0, i64 0
  %4 = getelementptr inbounds %struct.student, %struct.student* %2, i64 0, i32 1, i64 0
  %5 = getelementptr inbounds %struct.student, %struct.student* %2, i64 0, i32 2
  %6 = getelementptr inbounds %struct.student, %struct.student* %2, i64 0, i32 3
  %7 = getelementptr inbounds %struct.student, %struct.student* %2, i64 0, i32 4, i64 0
  %8 = getelementptr inbounds %struct.student, %struct.student* %2, i64 0, i32 5, i64 0
  %9 = tail call i32 (i8*, ...) @__isoc99_scanf(i8* getelementptr inbounds ([18 x i8], [18 x i8]* @.str, i64 0, i64 0), i8* %3, i8* nonnull %4, i8* nonnull %5, i32* nonnull %6, i8* nonnull %7, i8* nonnull %8)
  %10 = getelementptr inbounds %struct.student, %struct.student* %2, i64 0, i32 6
  store %struct.student* null, %struct.student** %10, align 16, !tbaa !9
  %11 = load i32, i32* @n, align 4, !tbaa !5
  %12 = add nsw i32 %11, 1
  store i32 %12, i32* @n, align 4, !tbaa !5
  %13 = tail call noalias align 16 dereferenceable_or_null(168) i8* @malloc(i64 168) #4
  %14 = bitcast i8* %13 to %struct.student*
  %15 = getelementptr inbounds %struct.student, %struct.student* %14, i64 0, i32 0, i64 0
  %16 = tail call i32 (i8*, ...) @__isoc99_scanf(i8* getelementptr inbounds ([3 x i8], [3 x i8]* @.str.1, i64 0, i64 0), i8* %15)
  %17 = tail call i32 @strcmp(i8* noundef nonnull dereferenceable(1) %15, i8* noundef nonnull dereferenceable(4) getelementptr inbounds ([4 x i8], [4 x i8]* @.str.2, i64 0, i64 0)) #5
  %18 = icmp eq i32 %17, 0
  br i1 %18, label %37, label %19

19:                                               ; preds = %0, %19
  %20 = phi %struct.student* [ %32, %19 ], [ %14, %0 ]
  %21 = phi %struct.student* [ %20, %19 ], [ %2, %0 ]
  %22 = getelementptr inbounds %struct.student, %struct.student* %20, i64 0, i32 1, i64 0
  %23 = getelementptr inbounds %struct.student, %struct.student* %20, i64 0, i32 2
  %24 = getelementptr inbounds %struct.student, %struct.student* %20, i64 0, i32 3
  %25 = getelementptr inbounds %struct.student, %struct.student* %20, i64 0, i32 4, i64 0
  %26 = getelementptr inbounds %struct.student, %struct.student* %20, i64 0, i32 5, i64 0
  %27 = tail call i32 (i8*, ...) @__isoc99_scanf(i8* getelementptr inbounds ([15 x i8], [15 x i8]* @.str.3, i64 0, i64 0), i8* nonnull %22, i8* nonnull %23, i32* nonnull %24, i8* nonnull %25, i8* nonnull %26)
  %28 = getelementptr inbounds %struct.student, %struct.student* %20, i64 0, i32 6
  store %struct.student* %21, %struct.student** %28, align 16, !tbaa !9
  %29 = load i32, i32* @n, align 4, !tbaa !5
  %30 = add nsw i32 %29, 1
  store i32 %30, i32* @n, align 4, !tbaa !5
  %31 = tail call noalias align 16 dereferenceable_or_null(168) i8* @malloc(i64 168) #4
  %32 = bitcast i8* %31 to %struct.student*
  %33 = getelementptr inbounds %struct.student, %struct.student* %32, i64 0, i32 0, i64 0
  %34 = tail call i32 (i8*, ...) @__isoc99_scanf(i8* getelementptr inbounds ([3 x i8], [3 x i8]* @.str.1, i64 0, i64 0), i8* %33)
  %35 = tail call i32 @strcmp(i8* noundef nonnull dereferenceable(1) %33, i8* noundef nonnull dereferenceable(4) getelementptr inbounds ([4 x i8], [4 x i8]* @.str.2, i64 0, i64 0)) #5
  %36 = icmp eq i32 %35, 0
  br i1 %36, label %37, label %19

37:                                               ; preds = %19, %0
  %38 = phi %struct.student* [ %2, %0 ], [ %20, %19 ]
  ret %struct.student* %38
}

; Function Attrs: inaccessiblememonly mustprogress nofree nounwind willreturn
declare noalias noundef align 16 i8* @malloc(i64 noundef) local_unnamed_addr #1

; Function Attrs: nofree nounwind
declare noundef i32 @__isoc99_scanf(i8* nocapture noundef readonly, ...) local_unnamed_addr #2

; Function Attrs: argmemonly mustprogress nofree nounwind readonly willreturn
declare i32 @strcmp(i8* nocapture, i8* nocapture) local_unnamed_addr #3

; Function Attrs: nofree nounwind sspstrong uwtable
define dso_local void @print(%struct.student* %0) local_unnamed_addr #0 {
  br label %2

2:                                                ; preds = %2, %1
  %3 = phi %struct.student* [ %0, %1 ], [ %15, %2 ]
  %4 = getelementptr inbounds %struct.student, %struct.student* %3, i64 0, i32 0, i64 0
  %5 = getelementptr inbounds %struct.student, %struct.student* %3, i64 0, i32 1, i64 0
  %6 = getelementptr inbounds %struct.student, %struct.student* %3, i64 0, i32 2
  %7 = load i8, i8* %6, align 2, !tbaa !12
  %8 = sext i8 %7 to i32
  %9 = getelementptr inbounds %struct.student, %struct.student* %3, i64 0, i32 3
  %10 = load i32, i32* %9, align 8, !tbaa !13
  %11 = getelementptr inbounds %struct.student, %struct.student* %3, i64 0, i32 4, i64 0
  %12 = getelementptr inbounds %struct.student, %struct.student* %3, i64 0, i32 5, i64 0
  %13 = tail call i32 (i8*, ...) @printf(i8* nonnull dereferenceable(1) getelementptr inbounds ([19 x i8], [19 x i8]* @.str.4, i64 0, i64 0), i8* %4, i8* nonnull %5, i32 %8, i32 %10, i8* nonnull %11, i8* nonnull %12)
  %14 = getelementptr inbounds %struct.student, %struct.student* %3, i64 0, i32 6
  %15 = load %struct.student*, %struct.student** %14, align 8, !tbaa !9
  %16 = icmp eq %struct.student* %15, null
  br i1 %16, label %17, label %2, !llvm.loop !14

17:                                               ; preds = %2
  ret void
}

; Function Attrs: nofree nounwind
declare noundef i32 @printf(i8* nocapture noundef readonly, ...) local_unnamed_addr #2

; Function Attrs: nofree nounwind sspstrong uwtable
define dso_local void @main() local_unnamed_addr #0 {
  %1 = tail call %struct.student* @creat()
  br label %2

2:                                                ; preds = %2, %0
  %3 = phi %struct.student* [ %1, %0 ], [ %15, %2 ]
  %4 = getelementptr inbounds %struct.student, %struct.student* %3, i64 0, i32 0, i64 0
  %5 = getelementptr inbounds %struct.student, %struct.student* %3, i64 0, i32 1, i64 0
  %6 = getelementptr inbounds %struct.student, %struct.student* %3, i64 0, i32 2
  %7 = load i8, i8* %6, align 2, !tbaa !12
  %8 = sext i8 %7 to i32
  %9 = getelementptr inbounds %struct.student, %struct.student* %3, i64 0, i32 3
  %10 = load i32, i32* %9, align 8, !tbaa !13
  %11 = getelementptr inbounds %struct.student, %struct.student* %3, i64 0, i32 4, i64 0
  %12 = getelementptr inbounds %struct.student, %struct.student* %3, i64 0, i32 5, i64 0
  %13 = tail call i32 (i8*, ...) @printf(i8* nonnull dereferenceable(1) getelementptr inbounds ([19 x i8], [19 x i8]* @.str.4, i64 0, i64 0), i8* %4, i8* nonnull %5, i32 %8, i32 %10, i8* nonnull %11, i8* nonnull %12) #4
  %14 = getelementptr inbounds %struct.student, %struct.student* %3, i64 0, i32 6
  %15 = load %struct.student*, %struct.student** %14, align 8, !tbaa !9
  %16 = icmp eq %struct.student* %15, null
  br i1 %16, label %17, label %2, !llvm.loop !14

17:                                               ; preds = %2
  ret void
}


!llvm.module.flags = !{!0, !1, !2, !3}
!llvm.ident = !{!4}

!0 = !{i32 1, !"wchar_size", i32 4}
!1 = !{i32 7, !"PIC Level", i32 2}
!2 = !{i32 7, !"PIE Level", i32 2}
!3 = !{i32 7, !"uwtable", i32 1}
!4 = !{!"clang version 13.0.0"}
!5 = !{!6, !6, i64 0}
!6 = !{!"int", !7, i64 0}
!7 = !{!"omnipotent char", !8, i64 0}
!8 = !{!"Simple C/C++ TBAA"}
!9 = !{!10, !11, i64 160}
!10 = !{!"student", !7, i64 0, !7, i64 10, !7, i64 110, !6, i64 112, !7, i64 116, !7, i64 136, !11, i64 160}
!11 = !{!"any pointer", !7, i64 0}
!12 = !{!10, !7, i64 110}
!13 = !{!10, !6, i64 112}
!14 = distinct !{!14, !15}
!15 = !{!"llvm.loop.mustprogress"}
